; Function Attrs: nounwind uwtable
define ptr @l_Array_foldlMUnsafe_fold___at_Lake_LeanLib_modulesFacetConfig___spec__2(ptr noundef readonly captures(none) %0, i64 noundef %1, i64 noundef %2, ptr noundef %3) local_unnamed_addr #0 {
  %.not51 = icmp eq i64 %1, %2
  br i1 %.not51, label %._crit_edge, label %.lr.ph

.lr.ph:                                           ; preds = %4
  %5 = getelementptr inbounds nuw i8, ptr %0, i64 24
  br label %6

6:                                                ; preds = %.lr.ph, %58
  %.02853 = phi i64 [ %1, %.lr.ph ], [ %61, %58 ]
  %.03052 = phi ptr [ %3, %.lr.ph ], [ %60, %58 ]
  %7 = getelementptr inbounds nuw [0 x ptr], ptr %5, i64 0, i64 %.02853
  %8 = load ptr, ptr %7, align 8, !tbaa !4
  %9 = ptrtoint ptr %8 to i64
  %10 = and i64 %9, 1
  %.not.i38 = icmp eq i64 %10, 0
  br i1 %.not.i38, label %11, label %lean_array_uget.exit

11:                                               ; preds = %6
  %.val.i.i = load i32, ptr %8, align 4, !tbaa !8
  %12 = icmp sgt i32 %.val.i.i, 0
  br i1 %12, label %13, label %15, !prof !11

13:                                               ; preds = %11
  %14 = add nuw i32 %.val.i.i, 1
  store i32 %14, ptr %8, align 4, !tbaa !8
  br label %lean_array_uget.exit

15:                                               ; preds = %11
  %.not.i.i = icmp eq i32 %.val.i.i, 0
  br i1 %.not.i.i, label %lean_array_uget.exit, label %16

16:                                               ; preds = %15
  tail call void @lean_inc_ref_cold(ptr noundef nonnull %8) #6
  br label %lean_array_uget.exit

lean_array_uget.exit:                             ; preds = %6, %13, %15, %16
  %17 = load ptr, ptr @l_Lake_ensureJob___at_Lake_LeanLib_recCollectLocalModules___spec__3___closed__1, align 8, !tbaa !4
  %18 = tail call ptr @lean_string_append(ptr noundef %17, ptr noundef %.03052) #6
  %19 = ptrtoint ptr %.03052 to i64
  %20 = and i64 %19, 1
  %.not47 = icmp eq i64 %20, 0
  br i1 %.not47, label %21, label %lean_dec.exit33

21:                                               ; preds = %lean_array_uget.exit
  %22 = load i32, ptr %.03052, align 4, !tbaa !8
  %23 = icmp sgt i32 %22, 1
  br i1 %23, label %24, label %26, !prof !11

24:                                               ; preds = %21
  %25 = add nsw i32 %22, -1
  store i32 %25, ptr %.03052, align 4, !tbaa !8
  br label %lean_dec.exit33

26:                                               ; preds = %21
  %.not.i = icmp eq i32 %22, 0
  br i1 %.not.i, label %lean_dec.exit33, label %27

27:                                               ; preds = %26
  tail call void @lean_dec_ref_cold(ptr noundef nonnull %.03052) #6
  br label %lean_dec.exit33

lean_dec.exit33:                                  ; preds = %27, %26, %24, %lean_array_uget.exit
  %28 = tail call ptr @lean_string_append(ptr noundef %18, ptr noundef %17) #6
  %29 = getelementptr inbounds nuw i8, ptr %8, i64 16
  %30 = load ptr, ptr %29, align 8, !tbaa !4
  %31 = ptrtoint ptr %30 to i64
  %32 = and i64 %31, 1
  %.not48 = icmp eq i64 %32, 0
  br i1 %.not48, label %33, label %lean_inc.exit

33:                                               ; preds = %lean_dec.exit33
  %.val.i = load i32, ptr %30, align 4, !tbaa !8
  %34 = icmp sgt i32 %.val.i, 0
  br i1 %34, label %35, label %37, !prof !11

35:                                               ; preds = %33
  %36 = add nuw i32 %.val.i, 1
  store i32 %36, ptr %30, align 4, !tbaa !8
  br label %lean_inc.exit

37:                                               ; preds = %33
  %.not.i39 = icmp eq i32 %.val.i, 0
  br i1 %.not.i39, label %lean_inc.exit, label %38

38:                                               ; preds = %37
  tail call void @lean_inc_ref_cold(ptr noundef nonnull %30) #6
  br label %lean_inc.exit

lean_inc.exit:                                    ; preds = %38, %37, %35, %lean_dec.exit33
  br i1 %.not.i38, label %39, label %lean_dec.exit32

39:                                               ; preds = %lean_inc.exit
  %40 = load i32, ptr %8, align 4, !tbaa !8
  %41 = icmp sgt i32 %40, 1
  br i1 %41, label %42, label %44, !prof !11

42:                                               ; preds = %39
  %43 = add nsw i32 %40, -1
  store i32 %43, ptr %8, align 4, !tbaa !8
  br label %lean_dec.exit32

44:                                               ; preds = %39
  %.not.i34 = icmp eq i32 %40, 0
  br i1 %.not.i34, label %lean_dec.exit32, label %45

45:                                               ; preds = %44
  tail call void @lean_dec_ref_cold(ptr noundef nonnull %8) #6
  br label %lean_dec.exit32

lean_dec.exit32:                                  ; preds = %45, %44, %42, %lean_inc.exit
  %46 = load ptr, ptr @l_Array_foldlMUnsafe_fold___at_Lake_LeanLib_modulesFacetConfig___spec__2___closed__1, align 8, !tbaa !4
  %47 = tail call ptr @l_Lean_Name_toString(ptr noundef %30, i8 noundef zeroext 1, ptr noundef %46) #6
  %48 = tail call ptr @lean_string_append(ptr noundef %28, ptr noundef %47) #6
  %49 = ptrtoint ptr %47 to i64
  %50 = and i64 %49, 1
  %.not50 = icmp eq i64 %50, 0
  br i1 %.not50, label %51, label %58

51:                                               ; preds = %lean_dec.exit32
  %52 = load i32, ptr %47, align 4, !tbaa !8
  %53 = icmp sgt i32 %52, 1
  br i1 %53, label %54, label %56, !prof !11

54:                                               ; preds = %51
  %55 = add nsw i32 %52, -1
  store i32 %55, ptr %47, align 4, !tbaa !8
  br label %58

56:                                               ; preds = %51
  %.not.i36 = icmp eq i32 %52, 0
  br i1 %.not.i36, label %58, label %57

57:                                               ; preds = %56
  tail call void @lean_dec_ref_cold(ptr noundef nonnull %47) #6
  br label %58

58:                                               ; preds = %lean_dec.exit32, %54, %56, %57
  %59 = load ptr, ptr @l_Array_foldlMUnsafe_fold___at_Lake_LeanLib_modulesFacetConfig___spec__2___closed__2, align 8, !tbaa !4
  %60 = tail call ptr @lean_string_append(ptr noundef %48, ptr noundef %59) #6
  %61 = add i64 %.02853, 1
  %.not = icmp eq i64 %61, %2
  br i1 %.not, label %._crit_edge, label %6

._crit_edge:                                      ; preds = %58, %4
  %.030.lcssa = phi ptr [ %3, %4 ], [ %60, %58 ]
  ret ptr %.030.lcssa
}